; Function Attrs: nounwind sspstrong uwtable
define internal zeroext i1 @vhost_vdpa_has_ufo(ptr noundef readonly captures(none) %nc) #0 {
entry:
  %0 = load ptr, ptr %nc, align 8
  %1 = load i32, ptr %0, align 8
  %cmp = icmp eq i32 %1, 13
  br i1 %cmp, label %if.end, label %if.else

if.else:                                          ; preds = %entry
  tail call void @__assert_fail(ptr noundef nonnull @.str, ptr noundef nonnull @.str.1, i32 noundef 260, ptr noundef nonnull @__PRETTY_FUNCTION__.vhost_vdpa_has_ufo) #12
  unreachable

if.end:                                           ; preds = %entry
  %vhost_net = getelementptr inbounds nuw i8, ptr %nc, i64 295688
  %2 = load ptr, ptr %vhost_net, align 8
  %call = tail call i64 @vhost_net_get_features(ptr noundef %2, i64 noundef 16384) #13
  %and = and i64 %call, 16384
  %tobool = icmp ne i64 %and, 0
  ret i1 %tobool
}